; Function Attrs: nounwind uwtable
define ptr @zend_ini_get_value(ptr noundef %0) local_unnamed_addr #0 {
  %2 = load ptr, ptr getelementptr inbounds (%struct._zend_executor_globals, ptr @executor_globals, i64 0, i32 46), align 8
  %3 = tail call ptr @zend_hash_find(ptr noundef %2, ptr noundef %0) #20
  %.not = icmp eq ptr %3, null
  br i1 %.not, label %.thread, label %4

4:                                                ; preds = %1
  %5 = load ptr, ptr %3, align 8, !nonnull !5, !noundef !5
  %6 = getelementptr inbounds i8, ptr %5, i64 40
  %7 = load ptr, ptr %6, align 8
  %.not15 = icmp eq ptr %7, null
  %8 = load ptr, ptr @zend_empty_string, align 8
  %9 = select i1 %.not15, ptr %8, ptr %7
  br label %.thread

.thread:                                          ; preds = %1, %4
  %.011 = phi ptr [ %9, %4 ], [ null, %1 ]
  ret ptr %.011
}